; ModuleID = 'source-C-CXX/44/254.c'
source_filename = "source-C-CXX/44/254.c"
target datalayout = "e-m:e-p270:32:32-p271:32:32-p272:64:64-i64:64-f80:128-n8:16:32:64-S128"
target triple = "x86_64-pc-linux-gnu"

@.str = private unnamed_addr constant [3 x i8] c"%s\00", align 1
@.str.1 = private unnamed_addr constant [4 x i8] c"%d\0A\00", align 1

; Function Attrs: nofree nounwind sspstrong uwtable
define dso_local void @main() local_unnamed_addr #0 {
  %1 = alloca [50 x i8], align 16
  %2 = alloca [50 x i8], align 16
  %3 = getelementptr inbounds [50 x i8], [50 x i8]* %1, i64 0, i64 0
  call void @llvm.lifetime.start.p0i8(i64 50, i8* nonnull %3) #4
  %4 = getelementptr inbounds [50 x i8], [50 x i8]* %2, i64 0, i64 0
  call void @llvm.lifetime.start.p0i8(i64 50, i8* nonnull %4) #4
  %5 = call i32 (i8*, ...) @__isoc99_scanf(i8* getelementptr inbounds ([3 x i8], [3 x i8]* @.str, i64 0, i64 0), [50 x i8]* nonnull %1)
  %6 = call i32 (i8*, ...) @__isoc99_scanf(i8* getelementptr inbounds ([3 x i8], [3 x i8]* @.str, i64 0, i64 0), [50 x i8]* nonnull %2)
  %7 = call i64 @strlen(i8* noundef nonnull %4) #5
  %8 = trunc i64 %7 to i32
  %9 = icmp sgt i32 %8, 0
  br i1 %9, label %10, label %35

10:                                               ; preds = %0
  %11 = call i64 @strlen(i8* noundef nonnull %3) #5
  %12 = shl i64 %11, 32
  %13 = ashr exact i64 %12, 32
  %14 = and i64 %7, 4294967295
  br label %15

15:                                               ; preds = %10, %32
  %16 = phi i64 [ 0, %10 ], [ %33, %32 ]
  br label %17

17:                                               ; preds = %15, %17
  %18 = phi i64 [ 0, %15 ], [ %25, %17 ]
  %19 = getelementptr inbounds [50 x i8], [50 x i8]* %1, i64 0, i64 %18
  %20 = load i8, i8* %19, align 1, !tbaa !5
  %21 = add nuw nsw i64 %18, %16
  %22 = getelementptr inbounds [50 x i8], [50 x i8]* %2, i64 0, i64 %21
  %23 = load i8, i8* %22, align 1, !tbaa !5
  %24 = icmp eq i8 %20, %23
  %25 = add nuw nsw i64 %18, 1
  %26 = icmp slt i64 %25, %13
  %27 = select i1 %26, i1 %24, i1 false
  br i1 %27, label %17, label %28, !llvm.loop !8

28:                                               ; preds = %17
  br i1 %24, label %29, label %32

29:                                               ; preds = %28
  %30 = trunc i64 %16 to i32
  %31 = call i32 (i8*, ...) @printf(i8* nonnull dereferenceable(1) getelementptr inbounds ([4 x i8], [4 x i8]* @.str.1, i64 0, i64 0), i32 %30)
  br label %35

32:                                               ; preds = %28
  %33 = add nuw nsw i64 %16, 1
  %34 = icmp eq i64 %33, %14
  br i1 %34, label %35, label %15, !llvm.loop !10

35:                                               ; preds = %32, %0, %29
  call void @llvm.lifetime.end.p0i8(i64 50, i8* nonnull %4) #4
  call void @llvm.lifetime.end.p0i8(i64 50, i8* nonnull %3) #4
  ret void
}

; Function Attrs: argmemonly mustprogress nofree nosync nounwind willreturn
declare void @llvm.lifetime.start.p0i8(i64 immarg, i8* nocapture) #1

; Function Attrs: nofree nounwind
declare noundef i32 @__isoc99_scanf(i8* nocapture noundef readonly, ...) local_unnamed_addr #2

; Function Attrs: argmemonly mustprogress nofree nounwind readonly willreturn
declare i64 @strlen(i8* nocapture) local_unnamed_addr #3

; Function Attrs: nofree nounwind
declare noundef i32 @printf(i8* nocapture noundef readonly, ...) local_unnamed_addr #2

; Function Attrs: argmemonly mustprogress nofree nosync nounwind willreturn
declare void @llvm.lifetime.end.p0i8(i64 immarg, i8* nocapture) #1


!llvm.module.flags = !{!0, !1, !2, !3}
!llvm.ident = !{!4}

!0 = !{i32 1, !"wchar_size", i32 4}
!1 = !{i32 7, !"PIC Level", i32 2}
!2 = !{i32 7, !"PIE Level", i32 2}
!3 = !{i32 7, !"uwtable", i32 1}
!4 = !{!"clang version 13.0.0"}
!5 = !{!6, !6, i64 0}
!6 = !{!"omnipotent char", !7, i64 0}
!7 = !{!"Simple C/C++ TBAA"}
!8 = distinct !{!8, !9}
!9 = !{!"llvm.loop.mustprogress"}
!10 = distinct !{!10, !9}
